target datalayout = "e-m:e-p270:32:32-p271:32:32-p272:64:64-i64:64-i128:128-f80:128-n8:16:32:64-S128"
target triple = "x86_64-pc-linux-gnu"

%union.stbcc__global_clumpid = type { %struct.anon }
%struct.anon = type { i32 }
%struct.st_stbcc_grid = type { i32, i32, i32, i32, i32, [1024 x [128 x i8]], [1024 x [1024 x i16]], [32 x [32 x %struct.stbcc__cluster]] }
%struct.stbcc__cluster = type { i16, i8, i8, [512 x %struct.stbcc__clump], [128 x %struct.stbcc__relative_clumpid] }
%struct.stbcc__clump = type { %union.stbcc__global_clumpid, i8, i8, i8, i8 }
%struct.stbcc__relative_clumpid = type { i16 }

; Function Attrs: nounwind uwtable
define i32 @stbcc_query_grid_node_connection(ptr noundef %0, i32 noundef %1, i32 noundef %2, i32 noundef %3, i32 noundef %4) #0 {
  %6 = alloca i32, align 4
  %7 = alloca ptr, align 8
  %8 = alloca i32, align 4
  %9 = alloca i32, align 4
  %10 = alloca i32, align 4
  %11 = alloca i32, align 4
  %12 = alloca %union.stbcc__global_clumpid, align 4
  %13 = alloca %union.stbcc__global_clumpid, align 4
  %14 = alloca i16, align 2
  %15 = alloca i16, align 2
  %16 = alloca i32, align 4
  %17 = alloca i32, align 4
  %18 = alloca i32, align 4
  %19 = alloca i32, align 4
  %20 = alloca i32, align 4
  store ptr %0, ptr %7, align 8, !tbaa !3
  store i32 %1, ptr %8, align 4, !tbaa !8
  store i32 %2, ptr %9, align 4, !tbaa !8
  store i32 %3, ptr %10, align 4, !tbaa !8
  store i32 %4, ptr %11, align 4, !tbaa !8
  call void @llvm.lifetime.start.p0(i64 4, ptr %12) #4
  call void @llvm.lifetime.start.p0(i64 4, ptr %13) #4
  call void @llvm.lifetime.start.p0(i64 2, ptr %14) #4
  %21 = load ptr, ptr %7, align 8, !tbaa !3
  %22 = getelementptr inbounds nuw %struct.st_stbcc_grid, ptr %21, i32 0, i32 6
  %23 = load i32, ptr %9, align 4, !tbaa !8
  %24 = sext i32 %23 to i64
  %25 = getelementptr inbounds [1024 x [1024 x i16]], ptr %22, i64 0, i64 %24
  %26 = load i32, ptr %8, align 4, !tbaa !8
  %27 = sext i32 %26 to i64
  %28 = getelementptr inbounds [1024 x i16], ptr %25, i64 0, i64 %27
  %29 = load i16, ptr %28, align 2, !tbaa !10
  store i16 %29, ptr %14, align 2, !tbaa !10
  call void @llvm.lifetime.start.p0(i64 2, ptr %15) #4
  %30 = load ptr, ptr %7, align 8, !tbaa !3
  %31 = getelementptr inbounds nuw %struct.st_stbcc_grid, ptr %30, i32 0, i32 6
  %32 = load i32, ptr %11, align 4, !tbaa !8
  %33 = sext i32 %32 to i64
  %34 = getelementptr inbounds [1024 x [1024 x i16]], ptr %31, i64 0, i64 %33
  %35 = load i32, ptr %10, align 4, !tbaa !8
  %36 = sext i32 %35 to i64
  %37 = getelementptr inbounds [1024 x i16], ptr %34, i64 0, i64 %36
  %38 = load i16, ptr %37, align 2, !tbaa !10
  store i16 %38, ptr %15, align 2, !tbaa !10
  call void @llvm.lifetime.start.p0(i64 4, ptr %16) #4
  %39 = load i32, ptr %8, align 4, !tbaa !8
  %40 = ashr i32 %39, 5
  store i32 %40, ptr %16, align 4, !tbaa !8
  call void @llvm.lifetime.start.p0(i64 4, ptr %17) #4
  %41 = load i32, ptr %9, align 4, !tbaa !8
  %42 = ashr i32 %41, 5
  store i32 %42, ptr %17, align 4, !tbaa !8
  call void @llvm.lifetime.start.p0(i64 4, ptr %18) #4
  %43 = load i32, ptr %10, align 4, !tbaa !8
  %44 = ashr i32 %43, 5
  store i32 %44, ptr %18, align 4, !tbaa !8
  call void @llvm.lifetime.start.p0(i64 4, ptr %19) #4
  %45 = load i32, ptr %11, align 4, !tbaa !8
  %46 = ashr i32 %45, 5
  store i32 %46, ptr %19, align 4, !tbaa !8
  %47 = load i16, ptr %14, align 2, !tbaa !10
  %48 = zext i16 %47 to i32
  %49 = icmp eq i32 %48, 512
  br i1 %49, label %54, label %50

50:                                               ; preds = %5
  %51 = load i16, ptr %15, align 2, !tbaa !10
  %52 = zext i16 %51 to i32
  %53 = icmp eq i32 %52, 512
  br i1 %53, label %54, label %55

54:                                               ; preds = %50, %5
  store i32 0, ptr %6, align 4
  store i32 1, ptr %20, align 4
  br label %87

55:                                               ; preds = %50
  %56 = load ptr, ptr %7, align 8, !tbaa !3
  %57 = getelementptr inbounds nuw %struct.st_stbcc_grid, ptr %56, i32 0, i32 7
  %58 = load i32, ptr %17, align 4, !tbaa !8
  %59 = sext i32 %58 to i64
  %60 = getelementptr inbounds [32 x [32 x %struct.stbcc__cluster]], ptr %57, i64 0, i64 %59
  %61 = load i32, ptr %16, align 4, !tbaa !8
  %62 = sext i32 %61 to i64
  %63 = getelementptr inbounds [32 x %struct.stbcc__cluster], ptr %60, i64 0, i64 %62
  %64 = getelementptr inbounds nuw %struct.stbcc__cluster, ptr %63, i32 0, i32 3
  %65 = load i16, ptr %14, align 2, !tbaa !10
  %66 = zext i16 %65 to i64
  %67 = getelementptr inbounds nuw [512 x %struct.stbcc__clump], ptr %64, i64 0, i64 %66
  %68 = getelementptr inbounds nuw %struct.stbcc__clump, ptr %67, i32 0, i32 0
  call void @llvm.memcpy.p0.p0.i64(ptr align 4 %12, ptr align 4 %68, i64 4, i1 false), !tbaa.struct !12
  %69 = load ptr, ptr %7, align 8, !tbaa !3
  %70 = getelementptr inbounds nuw %struct.st_stbcc_grid, ptr %69, i32 0, i32 7
  %71 = load i32, ptr %19, align 4, !tbaa !8
  %72 = sext i32 %71 to i64
  %73 = getelementptr inbounds [32 x [32 x %struct.stbcc__cluster]], ptr %70, i64 0, i64 %72
  %74 = load i32, ptr %18, align 4, !tbaa !8
  %75 = sext i32 %74 to i64
  %76 = getelementptr inbounds [32 x %struct.stbcc__cluster], ptr %73, i64 0, i64 %75
  %77 = getelementptr inbounds nuw %struct.stbcc__cluster, ptr %76, i32 0, i32 3
  %78 = load i16, ptr %15, align 2, !tbaa !10
  %79 = zext i16 %78 to i64
  %80 = getelementptr inbounds nuw [512 x %struct.stbcc__clump], ptr %77, i64 0, i64 %79
  %81 = getelementptr inbounds nuw %struct.stbcc__clump, ptr %80, i32 0, i32 0
  call void @llvm.memcpy.p0.p0.i64(ptr align 4 %13, ptr align 4 %81, i64 4, i1 false), !tbaa.struct !12
  %82 = load i32, ptr %12, align 4, !tbaa !13
  %83 = load i32, ptr %13, align 4, !tbaa !13
  %84 = icmp eq i32 %82, %83
  br i1 %84, label %85, label %86

85:                                               ; preds = %55
  store i32 1, ptr %6, align 4
  store i32 1, ptr %20, align 4
  br label %87

86:                                               ; preds = %55
  store i32 0, ptr %6, align 4
  store i32 1, ptr %20, align 4
  br label %87

87:                                               ; preds = %86, %85, %54
  call void @llvm.lifetime.end.p0(i64 4, ptr %19) #4
  call void @llvm.lifetime.end.p0(i64 4, ptr %18) #4
  call void @llvm.lifetime.end.p0(i64 4, ptr %17) #4
  call void @llvm.lifetime.end.p0(i64 4, ptr %16) #4
  call void @llvm.lifetime.end.p0(i64 2, ptr %15) #4
  call void @llvm.lifetime.end.p0(i64 2, ptr %14) #4
  call void @llvm.lifetime.end.p0(i64 4, ptr %13) #4
  call void @llvm.lifetime.end.p0(i64 4, ptr %12) #4
  %88 = load i32, ptr %6, align 4
  ret i32 %88
}