; Function Attrs: mustprogress nofree norecurse nosync nounwind willreturn memory(argmem: read) uwtable
define range(i32 0, 2) i32 @stbcc_query_grid_node_connection(ptr noundef readonly captures(none) %0, i32 noundef %1, i32 noundef %2, i32 noundef %3, i32 noundef %4) local_unnamed_addr #0 {
  %6 = getelementptr inbounds nuw i8, ptr %0, i64 131092
  %7 = sext i32 %2 to i64
  %8 = sext i32 %1 to i64
  %9 = getelementptr inbounds [1024 x [1024 x i16]], ptr %6, i64 0, i64 %7, i64 %8
  %10 = load i16, ptr %9, align 2, !tbaa !3
  %11 = sext i32 %4 to i64
  %12 = sext i32 %3 to i64
  %13 = getelementptr inbounds [1024 x [1024 x i16]], ptr %6, i64 0, i64 %11, i64 %12
  %14 = load i16, ptr %13, align 2, !tbaa !3
  %15 = icmp eq i16 %10, 512
  %16 = icmp eq i16 %14, 512
  %or.cond = select i1 %15, i1 true, i1 %16
  br i1 %or.cond, label %38, label %17

17:                                               ; preds = %5
  %18 = ashr i32 %4, 5
  %19 = ashr i32 %3, 5
  %20 = ashr i32 %2, 5
  %21 = ashr i32 %1, 5
  %22 = getelementptr inbounds nuw i8, ptr %0, i64 2228244
  %23 = sext i32 %20 to i64
  %24 = sext i32 %21 to i64
  %.idx = mul nsw i64 %23, 139392
  %.idx23 = mul nsw i64 %24, 4356
  %25 = getelementptr i8, ptr %22, i64 %.idx
  %26 = getelementptr i8, ptr %25, i64 %.idx23
  %27 = getelementptr i8, ptr %26, i64 4
  %28 = zext i16 %10 to i64
  %29 = getelementptr inbounds nuw [512 x %struct.stbcc__clump], ptr %27, i64 0, i64 %28
  %.sroa.010.0.copyload = load i32, ptr %29, align 4, !tbaa !7
  %30 = sext i32 %18 to i64
  %31 = sext i32 %19 to i64
  %.idx25 = mul nsw i64 %30, 139392
  %.idx26 = mul nsw i64 %31, 4356
  %32 = getelementptr i8, ptr %22, i64 %.idx25
  %33 = getelementptr i8, ptr %32, i64 %.idx26
  %34 = getelementptr i8, ptr %33, i64 4
  %35 = zext i16 %14 to i64
  %36 = getelementptr inbounds nuw [512 x %struct.stbcc__clump], ptr %34, i64 0, i64 %35
  %.sroa.0.0.copyload = load i32, ptr %36, align 4, !tbaa !7
  %37 = icmp eq i32 %.sroa.010.0.copyload, %.sroa.0.0.copyload
  %. = zext i1 %37 to i32
  br label %38

38:                                               ; preds = %17, %5
  %.0 = phi i32 [ 0, %5 ], [ %., %17 ]
  ret i32 %.0
}